; Function Attrs: nounwind uwtable
define nonnull ptr @lv_circle_buf_create_from_array(ptr noundef readonly captures(address_is_null) %0) local_unnamed_addr #0 {
  %.not = icmp eq ptr %0, null
  br i1 %.not, label %.preheader, label %2

.preheader:                                       ; preds = %1, %.preheader
  br label %.preheader

2:                                                ; preds = %1
  %3 = tail call ptr @lv_malloc(i64 noundef 40) #6
  %.not14 = icmp eq ptr %3, null
  br i1 %.not14, label %.preheader15, label %4

.preheader15:                                     ; preds = %2, %.preheader15
  br label %.preheader15

4:                                                ; preds = %2
  tail call void @llvm.memcpy.p0.p0.i64(ptr noundef nonnull align 8 dereferenceable(24) %3, ptr noundef nonnull align 8 dereferenceable(24) %0, i64 24, i1 false), !tbaa.struct !16
  %5 = getelementptr inbounds nuw i8, ptr %3, i64 24
  tail call void @llvm.memset.p0.i64(ptr noundef nonnull align 8 dereferenceable(9) %5, i8 0, i64 9, i1 false)
  %6 = tail call i32 @lv_array_capacity(ptr noundef nonnull %3) #6
  %7 = tail call i32 @lv_array_size(ptr noundef nonnull %3) #6
  %8 = sub i32 %6, %7
  %.not.i = icmp eq i32 %6, %7
  br i1 %.not.i, label %circle_buf_prepare_empty.exit, label %.lr.ph.i

.lr.ph.i:                                         ; preds = %4, %.lr.ph.i
  %.05.i = phi i32 [ %10, %.lr.ph.i ], [ 0, %4 ]
  %9 = tail call i32 @lv_array_push_back(ptr noundef nonnull %3, ptr noundef null) #6
  %10 = add nuw i32 %.05.i, 1
  %exitcond.not.i = icmp eq i32 %10, %8
  br i1 %exitcond.not.i, label %circle_buf_prepare_empty.exit, label %.lr.ph.i, !llvm.loop !14

circle_buf_prepare_empty.exit:                    ; preds = %.lr.ph.i, %4
  ret ptr %3
}